(dp1
S'grad_clip'
p2
F5
sS'dim'
p3
I700
sS'optimizer'
p4
S'adam'
p5
sS'dim_word'
p6
I450
sS'dictionary'
p7
S'../social_media.pkl'
p8
sS'decay_c'
p9
F0
sS'reload_'
p10
I00
sS'n_words'
p11
I40000
sS'batch_size'
p12
I16
sS'dimctx'
p13
I1200
sS'maxlen_w'
p14
I100
sS'saveto'
p15
S'decode_model.npz'
p16
sS'embeddings'
p17
NsS'decoder'
p18
S'gru'
p19
sS'sampleFreq'
p20
I100
sS'max_epochs'
p21
I20
sS'dispFreq'
p22
I1
sS'encoder'
p23
g19
sS'doutput'
p24
I00
sS'saveFreq'
p25
I10
s.