(dp1
S'grad_clip'
p2
F5
sS'dim'
p3
I1200
sS'optimizer'
p4
S'adam'
p5
sS'dim_word'
p6
I300
sS'dictionary'
p7
S'../debate_speech'
p8
sS'reload_'
p9
I00
sS'n_words'
p10
I20000
sS'batch_size'
p11
I64
sS'encoder'
p12
S'gru'
p13
sS'maxlen_w'
p14
I30
sS'saveto'
p15
S'model.npz'
p16
sS'decoder'
p17
g13
sS'max_epochs'
p18
I5
sS'dispFreq'
p19
I1
sS'decay_c'
p20
F0
sS'saveFreq'
p21
I5
s.